; Function Attrs: mustprogress uwtable
define internal fastcc void @_ZN2cv4faceL6histc_ERKNS_3MatEiib(ptr dead_on_unwind noalias nonnull writable align 8 %0, ptr noundef nonnull align 8 dereferenceable(96) %1, i32 noundef range(i32 -2147483648, 2147483647) %2) unnamed_addr #3 personality ptr @__gxx_personality_v0 {
  %4 = alloca %"class.cv::_OutputArray", align 8
  %5 = alloca %"class.cv::Mat", align 8
  %6 = alloca i32, align 4
  %7 = alloca [2 x float], align 4
  %8 = alloca ptr, align 8
  %9 = alloca %"class.cv::_InputArray", align 8
  %10 = alloca %"class.cv::Mat", align 8
  %11 = alloca %"class.cv::_OutputArray", align 8
  call void @llvm.lifetime.start.p0(i64 96, ptr nonnull %5) #24
  call void @_ZN2cv3MatC1Ev(ptr noundef nonnull align 8 dereferenceable(96) %5) #24
  call void @llvm.lifetime.start.p0(i64 4, ptr nonnull %6) #24
  %12 = add nsw i32 %2, 1
  store i32 %12, ptr %6, align 4, !tbaa !52
  call void @llvm.lifetime.start.p0(i64 8, ptr nonnull %7) #24
  store float 0.000000e+00, ptr %7, align 4, !tbaa !159
  %13 = getelementptr inbounds nuw i8, ptr %7, i64 4
  %14 = sitofp i32 %12 to float
  store float %14, ptr %13, align 4, !tbaa !159
  call void @llvm.lifetime.start.p0(i64 8, ptr nonnull %8) #24
  store ptr %7, ptr %8, align 8, !tbaa !217
  call void @llvm.lifetime.start.p0(i64 24, ptr nonnull %9) #24
  call void @llvm.lifetime.start.p0(i64 96, ptr nonnull %10) #24
  call void @_ZN2cv3MatC1Ev(ptr noundef nonnull align 8 dereferenceable(96) %10) #24
  %15 = getelementptr inbounds nuw i8, ptr %9, i64 16
  store i32 0, ptr %15, align 8, !tbaa !93
  %16 = getelementptr inbounds nuw i8, ptr %9, i64 20
  store i32 0, ptr %16, align 4, !tbaa !94
  store i32 16842752, ptr %9, align 8, !tbaa !95
  %17 = getelementptr inbounds nuw i8, ptr %9, i64 8
  store ptr %10, ptr %17, align 8, !tbaa !79
  call void @llvm.lifetime.start.p0(i64 24, ptr nonnull %11) #24
  %18 = getelementptr inbounds nuw i8, ptr %11, i64 8
  %19 = getelementptr inbounds nuw i8, ptr %11, i64 16
  store i64 0, ptr %19, align 8
  store i32 33619968, ptr %11, align 8, !tbaa !95
  store ptr %5, ptr %18, align 8, !tbaa !79
  invoke void @_ZN2cv8calcHistEPKNS_3MatEiPKiRKNS_11_InputArrayERKNS_12_OutputArrayEiS4_PPKfbb(ptr noundef nonnull %1, i32 noundef 1, ptr noundef null, ptr noundef nonnull align 8 dereferenceable(24) %9, ptr noundef nonnull align 8 dereferenceable(24) %11, i32 noundef 1, ptr noundef nonnull %6, ptr noundef nonnull %8, i1 noundef zeroext true, i1 noundef zeroext false)
          to label %20 unwind label %29

20:                                               ; preds = %3
  call void @llvm.lifetime.end.p0(i64 24, ptr nonnull %11) #24
  call void @_ZN2cv3MatD1Ev(ptr noundef nonnull align 8 dereferenceable(96) %10) #24
  call void @llvm.lifetime.end.p0(i64 96, ptr nonnull %10) #24
  call void @llvm.lifetime.end.p0(i64 24, ptr nonnull %9) #24
  %21 = invoke noundef i64 @_ZNK2cv3Mat5totalEv(ptr noundef nonnull align 8 dereferenceable(96) %1)
          to label %22 unwind label %31

22:                                               ; preds = %20
  %23 = trunc i64 %21 to i32
  %24 = sitofp i32 %23 to double
  call void @llvm.lifetime.start.p0(i64 24, ptr nonnull %4) #24
  %25 = getelementptr inbounds nuw i8, ptr %4, i64 8
  %26 = getelementptr inbounds nuw i8, ptr %4, i64 16
  store i64 0, ptr %26, align 8
  store i32 33619968, ptr %4, align 8, !tbaa !95
  store ptr %5, ptr %25, align 8, !tbaa !79
  %27 = fdiv double 1.000000e+00, %24
  invoke void @_ZNK2cv3Mat9convertToERKNS_12_OutputArrayEidd(ptr noundef nonnull align 8 dereferenceable(96) %5, ptr noundef nonnull align 8 dereferenceable(24) %4, i32 noundef -1, double noundef %27, double noundef 0.000000e+00)
          to label %28 unwind label %31

28:                                               ; preds = %22
  call void @llvm.lifetime.end.p0(i64 24, ptr nonnull %4) #24
  invoke void @_ZNK2cv3Mat7reshapeEii(ptr dead_on_unwind nonnull writable sret(%"class.cv::Mat") align 8 %0, ptr noundef nonnull align 8 dereferenceable(96) %5, i32 noundef 1, i32 noundef 1)
          to label %33 unwind label %34

29:                                               ; preds = %3
  %30 = landingpad { ptr, i32 }
          cleanup
  call void @llvm.lifetime.end.p0(i64 24, ptr nonnull %11) #24
  call void @_ZN2cv3MatD1Ev(ptr noundef nonnull align 8 dereferenceable(96) %10) #24
  call void @llvm.lifetime.end.p0(i64 96, ptr nonnull %10) #24
  call void @llvm.lifetime.end.p0(i64 24, ptr nonnull %9) #24
  br label %36

31:                                               ; preds = %22, %20
  %32 = landingpad { ptr, i32 }
          cleanup
  br label %36

33:                                               ; preds = %28
  call void @llvm.lifetime.end.p0(i64 8, ptr nonnull %8) #24
  call void @llvm.lifetime.end.p0(i64 8, ptr nonnull %7) #24
  call void @llvm.lifetime.end.p0(i64 4, ptr nonnull %6) #24
  call void @_ZN2cv3MatD1Ev(ptr noundef nonnull align 8 dereferenceable(96) %5) #24
  call void @llvm.lifetime.end.p0(i64 96, ptr nonnull %5) #24
  ret void

34:                                               ; preds = %28
  %35 = landingpad { ptr, i32 }
          cleanup
  br label %36

36:                                               ; preds = %34, %31, %29
  %.pn13 = phi { ptr, i32 } [ %35, %34 ], [ %32, %31 ], [ %30, %29 ]
  call void @llvm.lifetime.end.p0(i64 8, ptr nonnull %8) #24
  call void @llvm.lifetime.end.p0(i64 8, ptr nonnull %7) #24
  call void @llvm.lifetime.end.p0(i64 4, ptr nonnull %6) #24
  call void @_ZN2cv3MatD1Ev(ptr noundef nonnull align 8 dereferenceable(96) %5) #24
  call void @llvm.lifetime.end.p0(i64 96, ptr nonnull %5) #24
  resume { ptr, i32 } %.pn13
}